# SymbolsHelper-Confirmed: 0.14.0 amd64
libbpkg-0.14.so libbpkg-staged-0.14 #MINVER#
 _ZN4bpkg10dependencyD1Ev@Base 0.14.0
 _ZN4bpkg10dependencyD2Ev@Base 0.14.0
 _ZN4bpkg10guess_typeERKN4butl9basic_urlINS_19repository_protocolENS_21repository_url_traitsEEEb@Base 0.14.0
 _ZN4bpkg11list_parser4nextB5cxx11Ev@Base 0.14.0
 _ZN4bpkg12manifest_urlC1ERKNSt7__cxx1112basic_stringIcSt11char_traitsIcESaIcEEES6_@Base 0.14.0
 _ZN4bpkg12manifest_urlC2ERKNSt7__cxx1112basic_stringIcSt11char_traitsIcESaIcEEES6_@Base 0.14.0
 _ZN4bpkg12manifest_urlD1Ev@Base 0.14.0
 _ZN4bpkg12manifest_urlD2Ev@Base 0.14.0
 _ZN4bpkg12to_text_typeERKNSt7__cxx1112basic_stringIcSt11char_traitsIcESaIcEEE@Base 0.14.0
 _ZN4bpkg14canonical_part3addEPKcS2_b@Base 0.14.0
 _ZN4bpkg14git_ref_filterC1ERKNSt7__cxx1112basic_stringIcSt11char_traitsIcESaIcEEE@Base 0.14.0
 _ZN4bpkg14git_ref_filterC2ERKNSt7__cxx1112basic_stringIcSt11char_traitsIcESaIcEEE@Base 0.14.0
 _ZN4bpkg14git_ref_filterD1Ev@Base 0.14.0
 _ZN4bpkg14git_ref_filterD2Ev@Base 0.14.0
 _ZN4bpkg16build_class_exprC1ERKNSt7__cxx1112basic_stringIcSt11char_traitsIcESaIcEEES6_@Base 0.14.0
 _ZN4bpkg16build_class_exprC1ERKSt6vectorINSt7__cxx1112basic_stringIcSt11char_traitsIcESaIcEEESaIS7_EEcS7_@Base 0.14.0
 _ZN4bpkg16build_class_exprC2ERKNSt7__cxx1112basic_stringIcSt11char_traitsIcESaIcEEES6_@Base 0.14.0
 _ZN4bpkg16build_class_exprC2ERKSt6vectorINSt7__cxx1112basic_stringIcSt11char_traitsIcESaIcEEESaIS7_EEcS7_@Base 0.14.0
 _ZN4bpkg16build_class_exprD1Ev@Base 0.14.0
 _ZN4bpkg16build_class_exprD2Ev@Base 0.14.0
 _ZN4bpkg16build_class_term13validate_nameERKNSt7__cxx1112basic_stringIcSt11char_traitsIcESaIcEEE@Base 0.14.0
 _ZN4bpkg16build_class_termC1EOS0_@Base 0.14.0
 _ZN4bpkg16build_class_termC1ERKS0_@Base 0.14.0
 _ZN4bpkg16build_class_termC2EOS0_@Base 0.14.0
 _ZN4bpkg16build_class_termC2ERKS0_@Base 0.14.0
 _ZN4bpkg16build_class_termD1Ev@Base 0.14.0
 _ZN4bpkg16build_class_termD2Ev@Base 0.14.0
 _ZN4bpkg16build_class_termaSEOS0_@Base 0.14.0
 _ZN4bpkg16build_class_termaSERKS0_@Base 0.14.0
 _ZN4bpkg16build_constraintD1Ev@Base 0.14.0
 _ZN4bpkg16build_constraintD2Ev@Base 0.14.0
 (optional=templinst)_ZN4bpkg16package_manifest10load_filesERKSt8functionIFNSt7__cxx1112basic_stringIcSt11char_traitsIcESaIcEEERKS7_RKN4butl10basic_pathIcNSA_13any_path_kindIcEEEEEEb@Base 0.14.0
 _ZN4bpkg16package_manifest18validate_overridesERKSt6vectorIN4butl19manifest_name_valueESaIS3_EERKNSt7__cxx1112basic_stringIcSt11char_traitsIcESaIcEEE@Base 0.14.0
 _ZN4bpkg16package_manifest8overrideERKSt6vectorIN4butl19manifest_name_valueESaIS3_EERKNSt7__cxx1112basic_stringIcSt11char_traitsIcESaIcEEE@Base 0.14.0
 _ZN4bpkg16package_manifestC1EOS0_@Base 0.14.0
 _ZN4bpkg16package_manifestC1ERKS0_@Base 0.14.0
 _ZN4bpkg16package_manifestC1ERN4butl15manifest_parserENS1_19manifest_name_valueEbbNS_22package_manifest_flagsE@Base 0.14.0
 _ZN4bpkg16package_manifestC1ERN4butl15manifest_parserERKSt8functionIFvRNS_7versionEEEbbNS_22package_manifest_flagsE@Base 0.14.0
 _ZN4bpkg16package_manifestC1ERN4butl15manifest_parserEbbNS_22package_manifest_flagsE@Base 0.14.0
 _ZN4bpkg16package_manifestC1Ev@Base 0.14.0
 _ZN4bpkg16package_manifestC2EOS0_@Base 0.14.0
 _ZN4bpkg16package_manifestC2ERKS0_@Base 0.14.0
 _ZN4bpkg16package_manifestC2ERN4butl15manifest_parserENS1_19manifest_name_valueEbbNS_22package_manifest_flagsE@Base 0.14.0
 _ZN4bpkg16package_manifestC2ERN4butl15manifest_parserERKSt8functionIFvRNS_7versionEEEbbNS_22package_manifest_flagsE@Base 0.14.0
 _ZN4bpkg16package_manifestC2ERN4butl15manifest_parserEbbNS_22package_manifest_flagsE@Base 0.14.0
 _ZN4bpkg16package_manifestC2Ev@Base 0.14.0
 _ZN4bpkg16package_manifestD1Ev@Base 0.14.0
 _ZN4bpkg16package_manifestD2Ev@Base 0.14.0
 _ZN4bpkg18signature_manifestC1ERN4butl15manifest_parserENS1_19manifest_name_valueEb@Base 0.14.0
 _ZN4bpkg18signature_manifestC1ERN4butl15manifest_parserEb@Base 0.14.0
 _ZN4bpkg18signature_manifestC2ERN4butl15manifest_parserENS1_19manifest_name_valueEb@Base 0.14.0
 _ZN4bpkg18signature_manifestC2ERN4butl15manifest_parserEb@Base 0.14.0
 _ZN4bpkg18to_repository_typeERKNSt7__cxx1112basic_stringIcSt11char_traitsIcESaIcEEE@Base 0.14.0
 _ZN4bpkg18version_constraintC1ERKNSt7__cxx1112basic_stringIcSt11char_traitsIcESaIcEEE@Base 0.14.0
 _ZN4bpkg18version_constraintC1ESt8optionalINS_7versionEEbS3_b@Base 0.14.0
 _ZN4bpkg18version_constraintC2ERKNSt7__cxx1112basic_stringIcSt11char_traitsIcESaIcEEE@Base 0.14.0
 _ZN4bpkg18version_constraintC2ESt8optionalINS_7versionEEbS3_b@Base 0.14.0
 _ZN4bpkg18version_constraintD1Ev@Base 0.14.0
 _ZN4bpkg18version_constraintD2Ev@Base 0.14.0
 _ZN4bpkg18version_constraintaSEOS0_@Base 0.14.0
 _ZN4bpkg19repository_locationC1EN4butl9basic_urlINS_19repository_protocolENS_21repository_url_traitsEEENS_15repository_typeE@Base 0.14.0
 _ZN4bpkg19repository_locationC1EN4butl9basic_urlINS_19repository_protocolENS_21repository_url_traitsEEENS_15repository_typeERKS0_@Base 0.14.0
 _ZN4bpkg19repository_locationC1ERKNSt7__cxx1112basic_stringIcSt11char_traitsIcESaIcEEERKSt8optionalINS_15repository_typeEEb@Base 0.14.0
 _ZN4bpkg19repository_locationC2EN4butl9basic_urlINS_19repository_protocolENS_21repository_url_traitsEEENS_15repository_typeE@Base 0.14.0
 _ZN4bpkg19repository_locationC2EN4butl9basic_urlINS_19repository_protocolENS_21repository_url_traitsEEENS_15repository_typeERKS0_@Base 0.14.0
 _ZN4bpkg19repository_locationC2ERKNSt7__cxx1112basic_stringIcSt11char_traitsIcESaIcEEERKSt8optionalINS_15repository_typeEEb@Base 0.14.0
 _ZN4bpkg19repository_locationD1Ev@Base 0.14.0
 _ZN4bpkg19repository_locationD2Ev@Base 0.14.0
 _ZN4bpkg19repository_manifestD1Ev@Base 0.14.0
 _ZN4bpkg19repository_manifestD2Ev@Base 0.14.0
 _ZN4bpkg20dir_package_manifestERN4butl15manifest_parserENS0_19manifest_name_valueEb@Base 0.14.0
 _ZN4bpkg20dir_package_manifestERN4butl15manifest_parserEb@Base 0.14.0
 _ZN4bpkg20dir_package_manifestERN4butl19manifest_serializerERKNS_16package_manifestE@Base 0.14.0
 _ZN4bpkg20find_base_repositoryERKSt6vectorINS_19repository_manifestESaIS1_EE@Base 0.14.0
 _ZN4bpkg20git_package_manifestERN4butl15manifest_parserENS0_19manifest_name_valueEb@Base 0.14.0
 _ZN4bpkg20git_package_manifestERN4butl15manifest_parserEb@Base 0.14.0
 _ZN4bpkg20git_package_manifestERN4butl19manifest_serializerERKNS_16package_manifestE@Base 0.14.0
 _ZN4bpkg20pkg_package_manifestERN4butl15manifest_parserENS0_19manifest_name_valueEb@Base 0.14.0
 _ZN4bpkg20typed_repository_urlC1ERKNSt7__cxx1112basic_stringIcSt11char_traitsIcESaIcEEE@Base 0.14.0
 _ZN4bpkg20typed_repository_urlC2ERKNSt7__cxx1112basic_stringIcSt11char_traitsIcESaIcEEE@Base 0.14.0
 _ZN4bpkg21dir_package_manifestsC1ERN4butl15manifest_parserEb@Base 0.14.0
 _ZN4bpkg21dir_package_manifestsC2ERN4butl15manifest_parserEb@Base 0.14.0
 _ZN4bpkg21git_package_manifestsC1ERN4butl15manifest_parserEb@Base 0.14.0
 _ZN4bpkg21git_package_manifestsC2ERN4butl15manifest_parserEb@Base 0.14.0
 _ZN4bpkg21parse_git_ref_filtersERKSt8optionalINSt7__cxx1112basic_stringIcSt11char_traitsIcESaIcEEEE@Base 0.14.0
 _ZN4bpkg21pkg_package_manifestsC1ERN4butl15manifest_parserEb@Base 0.14.0
 _ZN4bpkg21pkg_package_manifestsC2ERN4butl15manifest_parserEb@Base 0.14.0
 _ZN4bpkg21repository_url_traits14translate_pathB5cxx11ERKN4butl10basic_pathIcNS1_13any_path_kindIcEEEE@Base 0.14.0
 _ZN4bpkg21repository_url_traits14translate_pathEONSt7__cxx1112basic_stringIcSt11char_traitsIcESaIcEEE@Base 0.14.0
 _ZN4bpkg21repository_url_traits16translate_schemeERKNSt7__cxx1112basic_stringIcSt11char_traitsIcESaIcEEEOS6_RSt8optionalIN4butl19basic_url_authorityIS6_EEERSA_INSB_10basic_pathIcNSB_13any_path_kindIcEEEEERSA_IS6_ESN_Rb@Base 0.14.0
 _ZN4bpkg21repository_url_traits16translate_schemeERNSt7__cxx1112basic_stringIcSt11char_traitsIcESaIcEEERKNS_19repository_protocolERKSt8optionalIN4butl19basic_url_authorityIS6_EEERKSB_INSC_10basic_pathIcNSC_13any_path_kindIcEEEEERKSB_IS6_ESR_b@Base 0.14.0
 _ZN4bpkg23dependency_alternativesD1Ev@Base 0.14.0
 _ZN4bpkg23dependency_alternativesD2Ev@Base 0.14.0
 _ZN4bpkg23dir_repository_manifestERN4butl15manifest_parserENS0_19manifest_name_valueEb@Base 0.14.0
 _ZN4bpkg23dir_repository_manifestERN4butl15manifest_parserEb@Base 0.14.0
 _ZN4bpkg23git_repository_manifestERN4butl15manifest_parserENS0_19manifest_name_valueEb@Base 0.14.0
 _ZN4bpkg23git_repository_manifestERN4butl15manifest_parserEb@Base 0.14.0
 _ZN4bpkg23pkg_repository_manifestERN4butl15manifest_parserENS0_19manifest_name_valueEb@Base 0.14.0
 _ZN4bpkg23pkg_repository_manifestERN4butl15manifest_parserEb@Base 0.14.0
 _ZN4bpkg23to_test_dependency_typeERKNSt7__cxx1112basic_stringIcSt11char_traitsIcESaIcEEE@Base 0.14.0
 _ZN4bpkg24dir_repository_manifestsC1ERN4butl15manifest_parserEb@Base 0.14.0
 _ZN4bpkg24dir_repository_manifestsC2ERN4butl15manifest_parserEb@Base 0.14.0
 _ZN4bpkg24git_repository_manifestsC1ERN4butl15manifest_parserEb@Base 0.14.0
 _ZN4bpkg24git_repository_manifestsC2ERN4butl15manifest_parserEb@Base 0.14.0
 _ZN4bpkg24pkg_repository_manifestsC1ERN4butl15manifest_parserEb@Base 0.14.0
 _ZN4bpkg24pkg_repository_manifestsC2ERN4butl15manifest_parserEb@Base 0.14.0
 _ZN4bpkg24requirement_alternativesD1Ev@Base 0.14.0
 _ZN4bpkg24requirement_alternativesD2Ev@Base 0.14.0
 _ZN4bpkg5emailD1Ev@Base 0.14.0
 _ZN4bpkg5emailD2Ev@Base 0.14.0
 _ZN4bpkg7version9data_typeC1EPKcNS1_5parseEb@Base 0.14.0
 _ZN4bpkg7version9data_typeC2EPKcNS1_5parseEb@Base 0.14.0
 _ZN4bpkg7versionC1EOS0_@Base 0.14.0
 _ZN4bpkg7versionC1EPKcb@Base 0.14.0
 _ZN4bpkg7versionC1ERKS0_@Base 0.14.0
 _ZN4bpkg7versionC1EtNSt7__cxx1112basic_stringIcSt11char_traitsIcESaIcEEESt8optionalIS6_ES7_ItEj@Base 0.14.0
 _ZN4bpkg7versionC1Ev@Base 0.14.0
 _ZN4bpkg7versionC2EOS0_@Base 0.14.0
 _ZN4bpkg7versionC2EPKcb@Base 0.14.0
 _ZN4bpkg7versionC2ERKS0_@Base 0.14.0
 _ZN4bpkg7versionC2EtNSt7__cxx1112basic_stringIcSt11char_traitsIcESaIcEEESt8optionalIS6_ES7_ItEj@Base 0.14.0
 _ZN4bpkg7versionC2Ev@Base 0.14.0
 _ZN4bpkg7versionD1Ev@Base 0.14.0
 _ZN4bpkg7versionD2Ev@Base 0.14.0
 _ZN4bpkg7versionaSEOS0_@Base 0.14.0
 _ZN4bpkg7versionaSERKS0_@Base 0.14.0
 _ZN4bpkg8licensesD1Ev@Base 0.14.0
 _ZN4bpkg8licensesD2Ev@Base 0.14.0
 _ZN4bpkg9text_fileC1EOS0_@Base 0.14.0
 _ZN4bpkg9text_fileC1ERKS0_@Base 0.14.0
 _ZN4bpkg9text_fileC2EOS0_@Base 0.14.0
 _ZN4bpkg9text_fileC2ERKS0_@Base 0.14.0
 _ZN4bpkg9text_fileD1Ev@Base 0.14.0
 _ZN4bpkg9text_fileD2Ev@Base 0.14.0
 _ZN4bpkg9text_fileaSEOS0_@Base 0.14.0
 _ZN4bpkg9text_fileaSERKS0_@Base 0.14.0
 _ZN4bpkg9to_stringB5cxx11ENS_15repository_typeE@Base 0.14.0
 _ZN4bpkg9to_stringB5cxx11ENS_20test_dependency_typeE@Base 0.14.0
 _ZN4bpkg9to_stringB5cxx11ENS_9text_typeE@Base 0.14.0
 _ZN4bpkglsERSoRKNS_23dependency_alternativesE@Base 0.14.0
 (optional=templinst)_ZN4butl10basic_pathIcNS_13any_path_kindIcEEE9normalizeEbb@Base 0.14.0
 (optional=templinst)_ZN4butl10basic_pathIcNS_13any_path_kindIcEEEC1ENSt7__cxx1112basic_stringIcSt11char_traitsIcESaIcEEE@Base 0.14.0
 (optional=templinst)_ZN4butl10basic_pathIcNS_13any_path_kindIcEEEC1ERKNS3_8iteratorES6_@Base 0.14.0
 (optional=templinst)_ZN4butl10basic_pathIcNS_13any_path_kindIcEEEC2ENSt7__cxx1112basic_stringIcSt11char_traitsIcESaIcEEE@Base 0.14.0
 (optional=templinst)_ZN4butl10basic_pathIcNS_13any_path_kindIcEEEC2ERKNS3_8iteratorES6_@Base 0.14.0
 (optional=templinst)_ZN4butl10url_traitsINSt7__cxx1112basic_stringIcSt11char_traitsIcESaIcEEES6_S6_E4findERKS6_m@Base 0.14.0
 (optional=templinst)_ZN4butl12small_vectorINSt7__cxx1112basic_stringIcSt11char_traitsIcESaIcEEELm1EEC1Ev@Base 0.14.0
 (optional=templinst)_ZN4butl12small_vectorINSt7__cxx1112basic_stringIcSt11char_traitsIcESaIcEEELm1EEC2Ev@Base 0.14.0
 (optional=templinst)_ZN4butl13any_path_kindIcE4initEONSt7__cxx1112basic_stringIcSt11char_traitsIcESaIcEEEb@Base 0.14.0
 (optional=templinst)_ZN4butl14basic_url_hostINSt7__cxx1112basic_stringIcSt11char_traitsIcESaIcEEEE9normalizeEv@Base 0.14.0
 (optional=templinst)_ZN4butl14basic_url_hostINSt7__cxx1112basic_stringIcSt11char_traitsIcESaIcEEEEC1ES6_@Base 0.14.0
 (optional=templinst)_ZN4butl14basic_url_hostINSt7__cxx1112basic_stringIcSt11char_traitsIcESaIcEEEEC2ES6_@Base 0.14.0
 _ZN4butl15manifest_parser4nextEv@Base 0.14.0
 (optional=templinst)_ZN4butl15small_allocatorIN4bpkg15test_dependencyELm1ENS_22small_allocator_bufferIS2_Lm1EEEE9constructIJNS_12project_nameENS1_20test_dependency_typeESt8optionalINS1_18version_constraintEEEEEvPS2_DpOT_@Base 0.14.0
 _ZN4butl16manifest_parsingD0Ev@Base 0.14.0
 _ZN4butl16manifest_parsingD1Ev@Base 0.14.0
 _ZN4butl16manifest_parsingD2Ev@Base 0.14.0
 _ZN4butl17invalid_path_baseD0Ev@Base 0.14.0
 _ZN4butl17invalid_path_baseD1Ev@Base 0.14.0
 _ZN4butl17invalid_path_baseD2Ev@Base 0.14.0
 (optional=templinst)_ZN4butl18invalid_basic_pathIcEC1ERKNSt7__cxx1112basic_stringIcSt11char_traitsIcESaIcEEE@Base 0.14.0
 (optional=templinst)_ZN4butl18invalid_basic_pathIcEC2ERKNSt7__cxx1112basic_stringIcSt11char_traitsIcESaIcEEE@Base 0.14.0
 (optional=templinst)_ZN4butl18invalid_basic_pathIcED0Ev@Base 0.14.0
 (optional=templinst)_ZN4butl18invalid_basic_pathIcED1Ev@Base 0.14.0
 (optional=templinst)_ZN4butl18invalid_basic_pathIcED2Ev@Base 0.14.0
 (optional=templinst)_ZN4butl19basic_url_authorityINSt7__cxx1112basic_stringIcSt11char_traitsIcESaIcEEEEC1EOS7_@Base 0.14.0
 (optional=templinst)_ZN4butl19basic_url_authorityINSt7__cxx1112basic_stringIcSt11char_traitsIcESaIcEEEEC2EOS7_@Base 0.14.0
 (optional=templinst)_ZN4butl19basic_url_authorityINSt7__cxx1112basic_stringIcSt11char_traitsIcESaIcEEEED1Ev@Base 0.14.0
 (optional=templinst)_ZN4butl19basic_url_authorityINSt7__cxx1112basic_stringIcSt11char_traitsIcESaIcEEEED2Ev@Base 0.14.0
 _ZN4butl19manifest_name_valueC1EOS0_@Base 0.14.0
 _ZN4butl19manifest_name_valueC2EOS0_@Base 0.14.0
 _ZN4butl19manifest_name_valueD1Ev@Base 0.14.0
 _ZN4butl19manifest_name_valueD2Ev@Base 0.14.0
 _ZN4butl19manifest_name_valueaSEOS0_@Base 0.14.0
 _ZN4butl19manifest_serializer4nextERKNSt7__cxx1112basic_stringIcSt11char_traitsIcESaIcEEES8_@Base 0.14.0
 _ZN4butl22manifest_serializationD0Ev@Base 0.14.0
 _ZN4butl22manifest_serializationD1Ev@Base 0.14.0
 _ZN4butl22manifest_serializationD2Ev@Base 0.14.0
 _ZN4butl27standard_version_constraintD1Ev@Base 0.14.0
 _ZN4butl27standard_version_constraintD2Ev@Base 0.14.0
 _ZN4butl6xdigitEc@Base 0.14.0
 (optional=templinst)_ZN4butl9basic_urlIN4bpkg19repository_protocolENS1_21repository_url_traitsEEC1ERKNSt7__cxx1112basic_stringIcSt11char_traitsIcESaIcEEE@Base 0.14.0
 (optional=templinst)_ZN4butl9basic_urlIN4bpkg19repository_protocolENS1_21repository_url_traitsEEC1ERKS4_@Base 0.14.0
 (optional=templinst)_ZN4butl9basic_urlIN4bpkg19repository_protocolENS1_21repository_url_traitsEEC2ERKNSt7__cxx1112basic_stringIcSt11char_traitsIcESaIcEEE@Base 0.14.0
 (optional=templinst)_ZN4butl9basic_urlIN4bpkg19repository_protocolENS1_21repository_url_traitsEEC2ERKS4_@Base 0.14.0
 (optional=templinst)_ZN4butl9basic_urlIN4bpkg19repository_protocolENS1_21repository_url_traitsEED1Ev@Base 0.14.0
 (optional=templinst)_ZN4butl9basic_urlIN4bpkg19repository_protocolENS1_21repository_url_traitsEED2Ev@Base 0.14.0
 (optional=templinst)_ZN4butl9basic_urlIN4bpkg19repository_protocolENS1_21repository_url_traitsEEaSEOS4_@Base 0.14.0
 (optional=templinst)_ZN4butl9basic_urlINSt7__cxx1112basic_stringIcSt11char_traitsIcESaIcEEENS_10url_traitsIS6_S6_S6_EEE6decodeIN9__gnu_cxx17__normal_iteratorIPKcS6_EESt20back_insert_iteratorIS6_ERZNS9_6decodeERKS6_EUlRcE_EEvT_SN_T0_OT1_@Base 0.14.0
 (optional=templinst)_ZN4butl9basic_urlINSt7__cxx1112basic_stringIcSt11char_traitsIcESaIcEEENS_10url_traitsIS6_S6_S6_EEEC1ERKS6_@Base 0.14.0
 (optional=templinst)_ZN4butl9basic_urlINSt7__cxx1112basic_stringIcSt11char_traitsIcESaIcEEENS_10url_traitsIS6_S6_S6_EEEC2ERKS6_@Base 0.14.0
 (optional=templinst)_ZN4butl9basic_urlINSt7__cxx1112basic_stringIcSt11char_traitsIcESaIcEEENS_10url_traitsIS6_S6_S6_EEED1Ev@Base 0.14.0
 (optional=templinst)_ZN4butl9basic_urlINSt7__cxx1112basic_stringIcSt11char_traitsIcESaIcEEENS_10url_traitsIS6_S6_S6_EEED2Ev@Base 0.14.0
 (optional=templinst)_ZN9__gnu_cxx12__to_xstringINSt7__cxx1112basic_stringIcSt11char_traitsIcESaIcEEEcEET_PFiPT0_mPKS8_P13__va_list_tagEmSB_z@Base 0.14.0
 (optional=templinst)_ZN9__gnu_cxx6__stoaImmcJiEEET0_PFT_PKT1_PPS3_DpT2_EPKcS5_PmS9_@Base 0.14.0
 (optional=templinst)_ZN9__gnu_cxx6__stoaIyycJiEEET0_PFT_PKT1_PPS3_DpT2_EPKcS5_PmS9_@Base 0.14.0
 _ZNK4bpkg10dependency6stringB5cxx11Ev@Base 0.14.0
 _ZNK4bpkg16build_class_expr5matchERKSt6vectorINSt7__cxx1112basic_stringIcSt11char_traitsIcESaIcEEESaIS7_EERKSt3mapIS7_S7_St4lessIS7_ESaISt4pairIKS7_S7_EEERb@Base 0.14.0
 _ZNK4bpkg16build_class_expr6stringB5cxx11Ev@Base 0.14.0
 _ZNK4bpkg16package_manifest16serialize_headerERN4butl19manifest_serializerE@Base 0.14.0
 _ZNK4bpkg16package_manifest26effective_description_typeEb@Base 0.14.0
 _ZNK4bpkg16package_manifest9serializeERN4butl19manifest_serializerE@Base 0.14.0
 _ZNK4bpkg18signature_manifest9serializeERN4butl19manifest_serializerE@Base 0.14.0
 _ZNK4bpkg18version_constraint6stringB5cxx11Ev@Base 0.14.0
 _ZNK4bpkg18version_constraint9effectiveENS_7versionE@Base 0.14.0
 _ZNK4bpkg19repository_location4typeEv@Base 0.14.0
 _ZNK4bpkg19repository_location6stringB5cxx11Ev@Base 0.14.0
 _ZNK4bpkg19repository_manifest13effective_urlB5cxx11ERKNS_19repository_locationE@Base 0.14.0
 _ZNK4bpkg19repository_manifest9serializeERN4butl19manifest_serializerE@Base 0.14.0
 _ZNK4bpkg21dir_package_manifests9serializeERN4butl19manifest_serializerE@Base 0.14.0
 _ZNK4bpkg21git_package_manifests9serializeERN4butl19manifest_serializerE@Base 0.14.0
 _ZNK4bpkg21pkg_package_manifests9serializeERN4butl19manifest_serializerE@Base 0.14.0
 _ZNK4bpkg24dir_repository_manifests9serializeERN4butl19manifest_serializerE@Base 0.14.0
 _ZNK4bpkg24git_repository_manifests9serializeERN4butl19manifest_serializerE@Base 0.14.0
 _ZNK4bpkg24pkg_repository_manifests9serializeERN4butl19manifest_serializerE@Base 0.14.0
 _ZNK4bpkg7version6stringB5cxx11Ebb@Base 0.14.0
 _ZNK4bpkg7version7compareERKS0_bb@Base 0.14.0
 (optional=templinst)_ZNK4butl10basic_pathIcNS_13any_path_kindIcEEE4leafERKS3_@Base 0.14.0
 (optional=templinst)_ZNK4butl14basic_url_hostINSt7__cxx1112basic_stringIcSt11char_traitsIcESaIcEEEE6stringEv@Base 0.14.0
 (optional=templinst)_ZNK4butl19basic_url_authorityINSt7__cxx1112basic_stringIcSt11char_traitsIcESaIcEEEE6stringEv@Base 0.14.0
 (optional=templinst)_ZNK4butl9basic_urlIN4bpkg19repository_protocolENS1_21repository_url_traitsEE6stringB5cxx11Ev@Base 0.14.0
 (optional=templinst)_ZNK4butl9basic_urlINSt7__cxx1112basic_stringIcSt11char_traitsIcESaIcEEENS_10url_traitsIS6_S6_S6_EEE6stringEv@Base 0.14.0
 (optional=templinst)_ZNKSt7__cxx1112basic_stringIcSt11char_traitsIcESaIcEE12find_last_ofEPKcmm@Base 0.14.0
 (optional=templinst)_ZNKSt7__cxx1112basic_stringIcSt11char_traitsIcESaIcEE13find_first_ofEPKcmm@Base 0.14.0
 (optional=templinst)_ZNKSt7__cxx1112basic_stringIcSt11char_traitsIcESaIcEE17find_first_not_ofEPKcmm@Base 0.14.0
 (optional=templinst)_ZNKSt7__cxx1112basic_stringIcSt11char_traitsIcESaIcEE4findEPKcmm@Base 0.14.0
 (optional=templinst)_ZNKSt7__cxx1112basic_stringIcSt11char_traitsIcESaIcEE4findEcm@Base 0.14.0
 (optional=templinst)_ZNKSt7__cxx1112basic_stringIcSt11char_traitsIcESaIcEE7compareEPKc@Base 0.14.0
 (optional=templinst)_ZNKSt7__cxx1112basic_stringIcSt11char_traitsIcESaIcEE7compareEmmPKc@Base 0.14.0
 (optional=templinst)_ZNKSt8_Rb_treeINSt7__cxx1112basic_stringIcSt11char_traitsIcESaIcEEESt4pairIKS5_S5_ESt10_Select1stIS8_ESt4lessIS5_ESaIS8_EE4findERS7_@Base 0.14.0
 (optional=templinst)_ZNSt22_Optional_payload_baseIN4bpkg8priorityEEC1EbRKS2_@Base 0.14.0
 (optional=templinst)_ZNSt22_Optional_payload_baseIN4bpkg8priorityEEC2EbRKS2_@Base 0.14.0
 (optional=templinst)_ZNSt22_Optional_payload_baseIN4butl12project_nameEEC1EbRKS2_@Base 0.14.0
 (optional=templinst)_ZNSt22_Optional_payload_baseIN4butl12project_nameEEC2EbRKS2_@Base 0.14.0
 (optional=templinst)_ZNSt22_Optional_payload_baseINSt7__cxx1112basic_stringIcSt11char_traitsIcESaIcEEEE14_M_move_assignEOS6_@Base 0.14.0
 (optional=templinst)_ZNSt4pairINSt7__cxx1112basic_stringIcSt11char_traitsIcESaIcEEES5_ED1Ev@Base 0.14.0
 (optional=templinst)_ZNSt4pairINSt7__cxx1112basic_stringIcSt11char_traitsIcESaIcEEES5_ED2Ev@Base 0.14.0
 (optional=templinst)_ZNSt6vectorIN4bpkg10dependencyEN4butl15small_allocatorIS1_Lm1ENS2_22small_allocator_bufferIS1_Lm1EEEEEE17_M_realloc_insertIJS1_EEEvN9__gnu_cxx17__normal_iteratorIPS1_S7_EEDpOT_@Base 0.14.0
 (optional=templinst)_ZNSt6vectorIN4bpkg10dependencyEN4butl15small_allocatorIS1_Lm1ENS2_22small_allocator_bufferIS1_Lm1EEEEEE7reserveEm@Base 0.14.0
 (optional=templinst)_ZNSt6vectorIN4bpkg10dependencyEN4butl15small_allocatorIS1_Lm1ENS2_22small_allocator_bufferIS1_Lm1EEEEEED1Ev@Base 0.14.0
 (optional=templinst)_ZNSt6vectorIN4bpkg10dependencyEN4butl15small_allocatorIS1_Lm1ENS2_22small_allocator_bufferIS1_Lm1EEEEEED2Ev@Base 0.14.0
 (optional=templinst)_ZNSt6vectorIN4bpkg10dependencyEN4butl15small_allocatorIS1_Lm1ENS2_22small_allocator_bufferIS1_Lm1EEEEEEaSERKS7_@Base 0.14.0
 (optional=templinst)_ZNSt6vectorIN4bpkg14git_ref_filterEN4butl15small_allocatorIS1_Lm2ENS2_22small_allocator_bufferIS1_Lm2EEEEEE12emplace_backIJS1_EEERS1_DpOT_@Base 0.14.0
 (optional=templinst)_ZNSt6vectorIN4bpkg14git_ref_filterEN4butl15small_allocatorIS1_Lm2ENS2_22small_allocator_bufferIS1_Lm2EEEEEE13_M_assign_auxIPKS1_EEvT_SB_St20forward_iterator_tag@Base 0.14.0
 (optional=templinst)_ZNSt6vectorIN4bpkg14git_ref_filterEN4butl15small_allocatorIS1_Lm2ENS2_22small_allocator_bufferIS1_Lm2EEEEEE13_M_assign_auxISt13move_iteratorIN9__gnu_cxx17__normal_iteratorIPS1_S7_EEEEEvT_SF_St20forward_iterator_tag@Base 0.14.0
 (optional=templinst)_ZNSt6vectorIN4bpkg14git_ref_filterEN4butl15small_allocatorIS1_Lm2ENS2_22small_allocator_bufferIS1_Lm2EEEEEE17_M_realloc_insertIJNSt7__cxx1112basic_stringIcSt11char_traitsIcESaIcEEEEEEvN9__gnu_cxx17__normal_iteratorIPS1_S7_EEDpOT_@Base 0.14.0
 (optional=templinst)_ZNSt6vectorIN4bpkg14git_ref_filterEN4butl15small_allocatorIS1_Lm2ENS2_22small_allocator_bufferIS1_Lm2EEEEEE7reserveEm@Base 0.14.0
 (optional=templinst)_ZNSt6vectorIN4bpkg14git_ref_filterEN4butl15small_allocatorIS1_Lm2ENS2_22small_allocator_bufferIS1_Lm2EEEEEED1Ev@Base 0.14.0
 (optional=templinst)_ZNSt6vectorIN4bpkg14git_ref_filterEN4butl15small_allocatorIS1_Lm2ENS2_22small_allocator_bufferIS1_Lm2EEEEEED2Ev@Base 0.14.0
 (optional=templinst)_ZNSt6vectorIN4bpkg15test_dependencyEN4butl15small_allocatorIS1_Lm1ENS2_22small_allocator_bufferIS1_Lm1EEEEEE13_M_assign_auxIN9__gnu_cxx17__normal_iteratorIPS1_S7_EEEEvT_SD_St20forward_iterator_tag@Base 0.14.0
 (optional=templinst)_ZNSt6vectorIN4bpkg15test_dependencyEN4butl15small_allocatorIS1_Lm1ENS2_22small_allocator_bufferIS1_Lm1EEEEEE17_M_realloc_insertIJNS2_12project_nameENS0_20test_dependency_typeESt8optionalINS0_18version_constraintEEEEEvN9__gnu_cxx17__normal_iteratorIPS1_S7_EEDpOT_@Base 0.14.0
 (optional=templinst)_ZNSt6vectorIN4bpkg15test_dependencyEN4butl15small_allocatorIS1_Lm1ENS2_22small_allocator_bufferIS1_Lm1EEEEEE7reserveEm@Base 0.14.0
 (optional=templinst)_ZNSt6vectorIN4bpkg15test_dependencyEN4butl15small_allocatorIS1_Lm1ENS2_22small_allocator_bufferIS1_Lm1EEEEEED1Ev@Base 0.14.0
 (optional=templinst)_ZNSt6vectorIN4bpkg15test_dependencyEN4butl15small_allocatorIS1_Lm1ENS2_22small_allocator_bufferIS1_Lm1EEEEEED2Ev@Base 0.14.0
 (optional=templinst)_ZNSt6vectorIN4bpkg15test_dependencyEN4butl15small_allocatorIS1_Lm1ENS2_22small_allocator_bufferIS1_Lm1EEEEEEaSERKS7_@Base 0.14.0
 (optional=templinst)_ZNSt6vectorIN4bpkg16build_class_exprEN4butl15small_allocatorIS1_Lm1ENS2_22small_allocator_bufferIS1_Lm1EEEEEE12emplace_backIJS1_EEERS1_DpOT_@Base 0.14.0
 (optional=templinst)_ZNSt6vectorIN4bpkg16build_class_exprEN4butl15small_allocatorIS1_Lm1ENS2_22small_allocator_bufferIS1_Lm1EEEEEE13_M_assign_auxISt13move_iteratorIN9__gnu_cxx17__normal_iteratorIPS1_S7_EEEEEvT_SF_St20forward_iterator_tag@Base 0.14.0
 (optional=templinst)_ZNSt6vectorIN4bpkg16build_class_exprEN4butl15small_allocatorIS1_Lm1ENS2_22small_allocator_bufferIS1_Lm1EEEEEE7reserveEm@Base 0.14.0
 (optional=templinst)_ZNSt6vectorIN4bpkg16build_class_exprEN4butl15small_allocatorIS1_Lm1ENS2_22small_allocator_bufferIS1_Lm1EEEEEED1Ev@Base 0.14.0
 (optional=templinst)_ZNSt6vectorIN4bpkg16build_class_exprEN4butl15small_allocatorIS1_Lm1ENS2_22small_allocator_bufferIS1_Lm1EEEEEED2Ev@Base 0.14.0
 (optional=templinst)_ZNSt6vectorIN4bpkg16build_class_exprEN4butl15small_allocatorIS1_Lm1ENS2_22small_allocator_bufferIS1_Lm1EEEEEEaSERKS7_@Base 0.14.0
 (optional=templinst)_ZNSt6vectorIN4bpkg16build_class_termESaIS1_EE17_M_realloc_insertIJNSt7__cxx1112basic_stringIcSt11char_traitsIcESaIcEEERcRbEEEvN9__gnu_cxx17__normal_iteratorIPS1_S3_EEDpOT_@Base 0.14.0
 (optional=templinst)_ZNSt6vectorIN4bpkg16build_class_termESaIS1_EE17_M_realloc_insertIJRKNSt7__cxx1112basic_stringIcSt11char_traitsIcESaIcEEEcbEEEvN9__gnu_cxx17__normal_iteratorIPS1_S3_EEDpOT_@Base 0.14.0
 (optional=templinst)_ZNSt6vectorIN4bpkg16build_class_termESaIS1_EE17_M_realloc_insertIJS3_RcRbEEEvN9__gnu_cxx17__normal_iteratorIPS1_S3_EEDpOT_@Base 0.14.0
 (optional=templinst)_ZNSt6vectorIN4bpkg16build_class_termESaIS1_EED1Ev@Base 0.14.0
 (optional=templinst)_ZNSt6vectorIN4bpkg16build_class_termESaIS1_EED2Ev@Base 0.14.0
 (optional=templinst)_ZNSt6vectorIN4bpkg16build_class_termESaIS1_EEaSERKS3_@Base 0.14.0
 (optional=templinst)_ZNSt6vectorIN4bpkg16build_constraintESaIS1_EE12emplace_backIJS1_EEERS1_DpOT_@Base 0.14.0
 (optional=templinst)_ZNSt6vectorIN4bpkg16build_constraintESaIS1_EE17_M_realloc_insertIJS1_EEEvN9__gnu_cxx17__normal_iteratorIPS1_S3_EEDpOT_@Base 0.14.0
 (optional=templinst)_ZNSt6vectorIN4bpkg16build_constraintESaIS1_EED1Ev@Base 0.14.0
 (optional=templinst)_ZNSt6vectorIN4bpkg16build_constraintESaIS1_EED2Ev@Base 0.14.0
 (optional=templinst)_ZNSt6vectorIN4bpkg16package_manifestESaIS1_EE12emplace_backIJS1_EEERS1_DpOT_@Base 0.14.0
 (optional=templinst)_ZNSt6vectorIN4bpkg16package_manifestESaIS1_EE17_M_realloc_insertIJS1_EEEvN9__gnu_cxx17__normal_iteratorIPS1_S3_EEDpOT_@Base 0.14.0
 (optional=templinst)_ZNSt6vectorIN4bpkg16package_manifestESaIS1_EED1Ev@Base 0.14.0
 (optional=templinst)_ZNSt6vectorIN4bpkg16package_manifestESaIS1_EED2Ev@Base 0.14.0
 (optional=templinst)_ZNSt6vectorIN4bpkg19repository_manifestESaIS1_EE17_M_realloc_insertIJS1_EEEvN9__gnu_cxx17__normal_iteratorIPS1_S3_EEDpOT_@Base 0.14.0
 (optional=templinst)_ZNSt6vectorIN4bpkg19repository_manifestESaIS1_EED1Ev@Base 0.14.0
 (optional=templinst)_ZNSt6vectorIN4bpkg19repository_manifestESaIS1_EED2Ev@Base 0.14.0
 (optional=templinst)_ZNSt6vectorIN4bpkg23dependency_alternativesESaIS1_EE17_M_realloc_insertIJRKS1_EEEvN9__gnu_cxx17__normal_iteratorIPS1_S3_EEDpOT_@Base 0.14.0
 (optional=templinst)_ZNSt6vectorIN4bpkg23dependency_alternativesESaIS1_EED1Ev@Base 0.14.0
 (optional=templinst)_ZNSt6vectorIN4bpkg23dependency_alternativesESaIS1_EED2Ev@Base 0.14.0
 (optional=templinst)_ZNSt6vectorIN4bpkg24requirement_alternativesESaIS1_EE12emplace_backIJS1_EEERS1_DpOT_@Base 0.14.0
 (optional=templinst)_ZNSt6vectorIN4bpkg24requirement_alternativesESaIS1_EE17_M_realloc_insertIJS1_EEEvN9__gnu_cxx17__normal_iteratorIPS1_S3_EEDpOT_@Base 0.14.0
 (optional=templinst)_ZNSt6vectorIN4bpkg24requirement_alternativesESaIS1_EED1Ev@Base 0.14.0
 (optional=templinst)_ZNSt6vectorIN4bpkg24requirement_alternativesESaIS1_EED2Ev@Base 0.14.0
 (optional=templinst)_ZNSt6vectorIN4bpkg8licensesESaIS1_EE12emplace_backIJS1_EEERS1_DpOT_@Base 0.14.0
 (optional=templinst)_ZNSt6vectorIN4bpkg8licensesESaIS1_EE17_M_realloc_insertIJS1_EEEvN9__gnu_cxx17__normal_iteratorIPS1_S3_EEDpOT_@Base 0.14.0
 (optional=templinst)_ZNSt6vectorIN4bpkg8licensesESaIS1_EED1Ev@Base 0.14.0
 (optional=templinst)_ZNSt6vectorIN4bpkg8licensesESaIS1_EED2Ev@Base 0.14.0
 (optional=templinst)_ZNSt6vectorIN4bpkg9text_fileEN4butl15small_allocatorIS1_Lm1ENS2_22small_allocator_bufferIS1_Lm1EEEEEE12emplace_backIJNS2_10basic_pathIcNS2_13any_path_kindIcEEEENSt7__cxx1112basic_stringIcSt11char_traitsIcESaIcEEEEEERS1_DpOT_@Base 0.14.0
 (optional=templinst)_ZNSt6vectorIN4bpkg9text_fileEN4butl15small_allocatorIS1_Lm1ENS2_22small_allocator_bufferIS1_Lm1EEEEEE13_M_assign_auxIN9__gnu_cxx17__normal_iteratorIPS1_S7_EEEEvT_SD_St20forward_iterator_tag@Base 0.14.0
 (optional=templinst)_ZNSt6vectorIN4bpkg9text_fileEN4butl15small_allocatorIS1_Lm1ENS2_22small_allocator_bufferIS1_Lm1EEEEEE17_M_realloc_insertIJNS2_10basic_pathIcNS2_13any_path_kindIcEEEENSt7__cxx1112basic_stringIcSt11char_traitsIcESaIcEEEEEEvN9__gnu_cxx17__normal_iteratorIPS1_S7_EEDpOT_@Base 0.14.0
 (optional=templinst)_ZNSt6vectorIN4bpkg9text_fileEN4butl15small_allocatorIS1_Lm1ENS2_22small_allocator_bufferIS1_Lm1EEEEEE17_M_realloc_insertIJNSt7__cxx1112basic_stringIcSt11char_traitsIcESaIcEEEEEEvN9__gnu_cxx17__normal_iteratorIPS1_S7_EEDpOT_@Base 0.14.0
 (optional=templinst)_ZNSt6vectorIN4bpkg9text_fileEN4butl15small_allocatorIS1_Lm1ENS2_22small_allocator_bufferIS1_Lm1EEEEEE7reserveEm@Base 0.14.0
 (optional=templinst)_ZNSt6vectorIN4bpkg9text_fileEN4butl15small_allocatorIS1_Lm1ENS2_22small_allocator_bufferIS1_Lm1EEEEEED1Ev@Base 0.14.0
 (optional=templinst)_ZNSt6vectorIN4bpkg9text_fileEN4butl15small_allocatorIS1_Lm1ENS2_22small_allocator_bufferIS1_Lm1EEEEEED2Ev@Base 0.14.0
 (optional=templinst)_ZNSt6vectorIN4bpkg9text_fileEN4butl15small_allocatorIS1_Lm1ENS2_22small_allocator_bufferIS1_Lm1EEEEEEaSERKS7_@Base 0.14.0
 (optional=templinst)_ZNSt6vectorIN4butl19manifest_name_valueENS0_15small_allocatorIS1_Lm1ENS0_22small_allocator_bufferIS1_Lm1EEEEEE17_M_realloc_insertIJS1_EEEvN9__gnu_cxx17__normal_iteratorIPS1_S6_EEDpOT_@Base 0.14.0
 (optional=templinst)_ZNSt6vectorIN4butl19manifest_name_valueENS0_15small_allocatorIS1_Lm1ENS0_22small_allocator_bufferIS1_Lm1EEEEEED1Ev@Base 0.14.0
 (optional=templinst)_ZNSt6vectorIN4butl19manifest_name_valueENS0_15small_allocatorIS1_Lm1ENS0_22small_allocator_bufferIS1_Lm1EEEEEED2Ev@Base 0.14.0
 (optional=templinst)_ZNSt6vectorIN4butl19manifest_name_valueESaIS1_EE17_M_realloc_insertIJS1_EEEvN9__gnu_cxx17__normal_iteratorIPS1_S3_EEDpOT_@Base 0.14.0
 (optional=templinst)_ZNSt6vectorINSt7__cxx1112basic_stringIcSt11char_traitsIcESaIcEEEN4butl15small_allocatorIS5_Lm16ENS6_22small_allocator_bufferIS5_Lm16EEEEEE12emplace_backIJS5_EEERS5_DpOT_@Base 0.14.0
 (optional=templinst)_ZNSt6vectorINSt7__cxx1112basic_stringIcSt11char_traitsIcESaIcEEEN4butl15small_allocatorIS5_Lm16ENS6_22small_allocator_bufferIS5_Lm16EEEEEE17_M_realloc_insertIJS5_EEEvN9__gnu_cxx17__normal_iteratorIPS5_SB_EEDpOT_@Base 0.14.0
 (optional=templinst)_ZNSt6vectorINSt7__cxx1112basic_stringIcSt11char_traitsIcESaIcEEEN4butl15small_allocatorIS5_Lm16ENS6_22small_allocator_bufferIS5_Lm16EEEEEED1Ev@Base 0.14.0
 (optional=templinst)_ZNSt6vectorINSt7__cxx1112basic_stringIcSt11char_traitsIcESaIcEEEN4butl15small_allocatorIS5_Lm16ENS6_22small_allocator_bufferIS5_Lm16EEEEEED2Ev@Base 0.14.0
 (optional=templinst)_ZNSt6vectorINSt7__cxx1112basic_stringIcSt11char_traitsIcESaIcEEEN4butl15small_allocatorIS5_Lm1ENS6_22small_allocator_bufferIS5_Lm1EEEEEE13_M_assign_auxISt13move_iteratorIN9__gnu_cxx17__normal_iteratorIPS5_SB_EEEEEvT_SJ_St20forward_iterator_tag@Base 0.14.0
 (optional=templinst)_ZNSt6vectorINSt7__cxx1112basic_stringIcSt11char_traitsIcESaIcEEEN4butl15small_allocatorIS5_Lm1ENS6_22small_allocator_bufferIS5_Lm1EEEEEE17_M_realloc_insertIJRKS5_EEEvN9__gnu_cxx17__normal_iteratorIPS5_SB_EEDpOT_@Base 0.14.0
 (optional=templinst)_ZNSt6vectorINSt7__cxx1112basic_stringIcSt11char_traitsIcESaIcEEEN4butl15small_allocatorIS5_Lm1ENS6_22small_allocator_bufferIS5_Lm1EEEEEE17_M_realloc_insertIJS5_EEEvN9__gnu_cxx17__normal_iteratorIPS5_SB_EEDpOT_@Base 0.14.0
 (optional=templinst)_ZNSt6vectorINSt7__cxx1112basic_stringIcSt11char_traitsIcESaIcEEEN4butl15small_allocatorIS5_Lm1ENS6_22small_allocator_bufferIS5_Lm1EEEEEE7reserveEm@Base 0.14.0
 (optional=templinst)_ZNSt6vectorINSt7__cxx1112basic_stringIcSt11char_traitsIcESaIcEEEN4butl15small_allocatorIS5_Lm1ENS6_22small_allocator_bufferIS5_Lm1EEEEEED1Ev@Base 0.14.0
 (optional=templinst)_ZNSt6vectorINSt7__cxx1112basic_stringIcSt11char_traitsIcESaIcEEEN4butl15small_allocatorIS5_Lm1ENS6_22small_allocator_bufferIS5_Lm1EEEEEED2Ev@Base 0.14.0
 (optional=templinst)_ZNSt6vectorINSt7__cxx1112basic_stringIcSt11char_traitsIcESaIcEEEN4butl15small_allocatorIS5_Lm1ENS6_22small_allocator_bufferIS5_Lm1EEEEEEaSERKSB_@Base 0.14.0
 (optional=templinst)_ZNSt6vectorINSt7__cxx1112basic_stringIcSt11char_traitsIcESaIcEEEN4butl15small_allocatorIS5_Lm5ENS6_22small_allocator_bufferIS5_Lm5EEEEEE13_M_assign_auxISt13move_iteratorIN9__gnu_cxx17__normal_iteratorIPS5_SB_EEEEEvT_SJ_St20forward_iterator_tag@Base 0.14.0
 (optional=templinst)_ZNSt6vectorINSt7__cxx1112basic_stringIcSt11char_traitsIcESaIcEEEN4butl15small_allocatorIS5_Lm5ENS6_22small_allocator_bufferIS5_Lm5EEEEEE17_M_default_appendEm@Base 0.14.0
 (optional=templinst)_ZNSt6vectorINSt7__cxx1112basic_stringIcSt11char_traitsIcESaIcEEEN4butl15small_allocatorIS5_Lm5ENS6_22small_allocator_bufferIS5_Lm5EEEEEE17_M_realloc_insertIJS5_EEEvN9__gnu_cxx17__normal_iteratorIPS5_SB_EEDpOT_@Base 0.14.0
 (optional=templinst)_ZNSt6vectorINSt7__cxx1112basic_stringIcSt11char_traitsIcESaIcEEEN4butl15small_allocatorIS5_Lm5ENS6_22small_allocator_bufferIS5_Lm5EEEEEE7reserveEm@Base 0.14.0
 (optional=templinst)_ZNSt6vectorINSt7__cxx1112basic_stringIcSt11char_traitsIcESaIcEEEN4butl15small_allocatorIS5_Lm5ENS6_22small_allocator_bufferIS5_Lm5EEEEEED1Ev@Base 0.14.0
 (optional=templinst)_ZNSt6vectorINSt7__cxx1112basic_stringIcSt11char_traitsIcESaIcEEEN4butl15small_allocatorIS5_Lm5ENS6_22small_allocator_bufferIS5_Lm5EEEEEED2Ev@Base 0.14.0
 (optional=templinst)_ZNSt6vectorINSt7__cxx1112basic_stringIcSt11char_traitsIcESaIcEEEN4butl15small_allocatorIS5_Lm5ENS6_22small_allocator_bufferIS5_Lm5EEEEEEaSERKSB_@Base 0.14.0
 (optional=templinst)_ZNSt6vectorINSt7__cxx1112basic_stringIcSt11char_traitsIcESaIcEEEN4butl15small_allocatorIS5_Lm8ENS6_22small_allocator_bufferIS5_Lm8EEEEEE12emplace_backIJS5_EEERS5_DpOT_@Base 0.14.0
 (optional=templinst)_ZNSt6vectorINSt7__cxx1112basic_stringIcSt11char_traitsIcESaIcEEEN4butl15small_allocatorIS5_Lm8ENS6_22small_allocator_bufferIS5_Lm8EEEEEE14_M_fill_insertEN9__gnu_cxx17__normal_iteratorIPS5_SB_EEmRKS5_@Base 0.14.0
 (optional=templinst)_ZNSt6vectorINSt7__cxx1112basic_stringIcSt11char_traitsIcESaIcEEEN4butl15small_allocatorIS5_Lm8ENS6_22small_allocator_bufferIS5_Lm8EEEEEE17_M_realloc_insertIJRKS5_EEEvN9__gnu_cxx17__normal_iteratorIPS5_SB_EEDpOT_@Base 0.14.0
 (optional=templinst)_ZNSt6vectorINSt7__cxx1112basic_stringIcSt11char_traitsIcESaIcEEEN4butl15small_allocatorIS5_Lm8ENS6_22small_allocator_bufferIS5_Lm8EEEEEE17_M_realloc_insertIJS5_EEEvN9__gnu_cxx17__normal_iteratorIPS5_SB_EEDpOT_@Base 0.14.0
 (optional=templinst)_ZNSt6vectorINSt7__cxx1112basic_stringIcSt11char_traitsIcESaIcEEEN4butl15small_allocatorIS5_Lm8ENS6_22small_allocator_bufferIS5_Lm8EEEEEED1Ev@Base 0.14.0
 (optional=templinst)_ZNSt6vectorINSt7__cxx1112basic_stringIcSt11char_traitsIcESaIcEEEN4butl15small_allocatorIS5_Lm8ENS6_22small_allocator_bufferIS5_Lm8EEEEEED2Ev@Base 0.14.0
 (optional=templinst)_ZNSt6vectorINSt7__cxx1112basic_stringIcSt11char_traitsIcESaIcEEESaIS5_EE17_M_realloc_insertIJS5_EEEvN9__gnu_cxx17__normal_iteratorIPS5_S7_EEDpOT_@Base 0.14.0
 (optional=templinst)_ZNSt6vectorINSt7__cxx1112basic_stringIcSt11char_traitsIcESaIcEEESaIS5_EEC1ESt16initializer_listIS5_ERKS6_@Base 0.14.0
 (optional=templinst)_ZNSt6vectorINSt7__cxx1112basic_stringIcSt11char_traitsIcESaIcEEESaIS5_EEC2ESt16initializer_listIS5_ERKS6_@Base 0.14.0
 (optional=templinst)_ZNSt6vectorINSt7__cxx1112basic_stringIcSt11char_traitsIcESaIcEEESaIS5_EED1Ev@Base 0.14.0
 (optional=templinst)_ZNSt6vectorINSt7__cxx1112basic_stringIcSt11char_traitsIcESaIcEEESaIS5_EED2Ev@Base 0.14.0
 (optional=templinst)_ZNSt6vectorINSt7__cxx1112basic_stringIcSt11char_traitsIcESaIcEEESaIS5_EEaSERKS7_@Base 0.14.0
 (optional=templinst)_ZNSt6vectorISt4pairINSt7__cxx1112basic_stringIcSt11char_traitsIcESaIcEEES6_EN4butl15small_allocatorIS7_Lm1ENS8_22small_allocator_bufferIS7_Lm1EEEEEED1Ev@Base 0.14.0
 (optional=templinst)_ZNSt6vectorISt4pairINSt7__cxx1112basic_stringIcSt11char_traitsIcESaIcEEES6_EN4butl15small_allocatorIS7_Lm1ENS8_22small_allocator_bufferIS7_Lm1EEEEEED2Ev@Base 0.14.0
 (optional=templinst)_ZNSt7__cxx1112basic_stringIcSt11char_traitsIcESaIcEE10_M_replaceEmmPKcm@Base 0.14.0
 (optional=templinst)_ZNSt7__cxx1112basic_stringIcSt11char_traitsIcESaIcEE12_M_constructIN9__gnu_cxx17__normal_iteratorIPKcS4_EEEEvT_SB_St20forward_iterator_tag@Base 0.14.0
 (optional=templinst)_ZNSt7__cxx1112basic_stringIcSt11char_traitsIcESaIcEE12_M_constructIPKcEEvT_S8_St20forward_iterator_tag@Base 0.14.0
 (optional=templinst)_ZNSt7__cxx1112basic_stringIcSt11char_traitsIcESaIcEE14_M_replace_auxEmmmc@Base 0.14.0
 (optional=templinst)_ZNSt7__cxx1112basic_stringIcSt11char_traitsIcESaIcEE4swapERS4_@Base 0.14.0
 (optional=templinst)_ZNSt7__cxx1112basic_stringIcSt11char_traitsIcESaIcEE9_M_appendEPKcm@Base 0.14.0
 (optional=templinst)_ZNSt7__cxx1112basic_stringIcSt11char_traitsIcESaIcEE9_M_assignERKS4_@Base 0.14.0
 (optional=templinst)_ZNSt7__cxx1112basic_stringIcSt11char_traitsIcESaIcEE9_M_createERmm@Base 0.14.0
 (optional=templinst)_ZNSt7__cxx1112basic_stringIcSt11char_traitsIcESaIcEE9_M_mutateEmmPKcm@Base 0.14.0
 (optional=templinst)_ZNSt7__cxx1112basic_stringIcSt11char_traitsIcESaIcEE9push_backEc@Base 0.14.0
 (optional=templinst)_ZNSt7__cxx1112basic_stringIcSt11char_traitsIcESaIcEEC1ERKS4_mRKS3_@Base 0.14.0
 (optional=templinst)_ZNSt7__cxx1112basic_stringIcSt11char_traitsIcESaIcEEC1ERKS4_mm@Base 0.14.0
 (optional=templinst)_ZNSt7__cxx1112basic_stringIcSt11char_traitsIcESaIcEEC2ERKS4_mRKS3_@Base 0.14.0
 (optional=templinst)_ZNSt7__cxx1112basic_stringIcSt11char_traitsIcESaIcEEC2ERKS4_mm@Base 0.14.0
 (optional=templinst)_ZNSt7__cxx1112basic_stringIcSt11char_traitsIcESaIcEED1Ev@Base 0.14.0
 (optional=templinst)_ZNSt7__cxx1112basic_stringIcSt11char_traitsIcESaIcEED2Ev@Base 0.14.0
 (optional=templinst)_ZNSt7__cxx1112basic_stringIcSt11char_traitsIcESaIcEEaSEOS4_@Base 0.14.0
 (optional=templinst)_ZNSt7__cxx1115basic_stringbufIcSt11char_traitsIcESaIcEED0Ev@Base 0.14.0
 (optional=templinst)_ZNSt7__cxx1115basic_stringbufIcSt11char_traitsIcESaIcEED1Ev@Base 0.14.0
 (optional=templinst)_ZNSt7__cxx1115basic_stringbufIcSt11char_traitsIcESaIcEED2Ev@Base 0.14.0
 (optional=templinst)_ZNSt8optionalIN4bpkg12manifest_urlEEaSIS1_EENSt9enable_ifIX7__and_vISt6__not_ISt7is_sameIS2_NSt9remove_cvINSt16remove_referenceIT_E4typeEE4typeEEES5_ISt6__and_IJSt9is_scalarIS1_ES6_IS1_NSt5decayIS9_E4typeEEEEESt16is_constructibleIS1_JS9_EESt13is_assignableIRS1_S9_EEERS2_E4typeEOS9_@Base 0.14.0
 (optional=templinst)_ZNSt8optionalIN4bpkg5emailEEaSIS1_EENSt9enable_ifIX7__and_vISt6__not_ISt7is_sameIS2_NSt9remove_cvINSt16remove_referenceIT_E4typeEE4typeEEES5_ISt6__and_IJSt9is_scalarIS1_ES6_IS1_NSt5decayIS9_E4typeEEEEESt16is_constructibleIS1_JS9_EESt13is_assignableIRS1_S9_EEERS2_E4typeEOS9_@Base 0.14.0
 (optional=templinst)_ZNSt8optionalIN4bpkg8priorityEEaSIS1_EENSt9enable_ifIX7__and_vISt6__not_ISt7is_sameIS2_NSt9remove_cvINSt16remove_referenceIT_E4typeEE4typeEEES5_ISt6__and_IJSt9is_scalarIS1_ES6_IS1_NSt5decayIS9_E4typeEEEEESt16is_constructibleIS1_JS9_EESt13is_assignableIRS1_S9_EEERS2_E4typeEOS9_@Base 0.14.0
 (optional=templinst)_ZNSt8optionalIN4butl10basic_pathIcNS0_13any_path_kindIcEEEEEaSIS4_EENSt9enable_ifIX7__and_vISt6__not_ISt7is_sameIS5_NSt9remove_cvINSt16remove_referenceIT_E4typeEE4typeEEES8_ISt6__and_IJSt9is_scalarIS4_ES9_IS4_NSt5decayISC_E4typeEEEEESt16is_constructibleIS4_JSC_EESt13is_assignableIRS4_SC_EEERS5_E4typeEOSC_@Base 0.14.0
 (optional=templinst)_ZNSt8optionalIN4butl19manifest_name_valueEEaSIS1_EENSt9enable_ifIX7__and_vISt6__not_ISt7is_sameIS2_NSt9remove_cvINSt16remove_referenceIT_E4typeEE4typeEEES5_ISt6__and_IJSt9is_scalarIS1_ES6_IS1_NSt5decayIS9_E4typeEEEEESt16is_constructibleIS1_JS9_EESt13is_assignableIRS1_S9_EEERS2_E4typeEOS9_@Base 0.14.0
 (optional=templinst)_ZNSt8optionalINSt7__cxx1112basic_stringIcSt11char_traitsIcESaIcEEEEaSIS5_EENSt9enable_ifIX7__and_vISt6__not_ISt7is_sameIS6_NSt9remove_cvINSt16remove_referenceIT_E4typeEE4typeEEES9_ISt6__and_IJSt9is_scalarIS5_ESA_IS5_NSt5decayISD_E4typeEEEEESt16is_constructibleIS5_JSD_EESt13is_assignableIRS5_SD_EEERS6_E4typeEOSD_@Base 0.14.0
 (optional=templinst)_ZSt22__uninitialized_copy_aIN9__gnu_cxx17__normal_iteratorIPN4bpkg15test_dependencyESt6vectorIS3_N4butl15small_allocatorIS3_Lm1ENS6_22small_allocator_bufferIS3_Lm1EEEEEEEES4_SA_ET0_T_SE_SD_RT1_@Base 0.14.0
 (optional=templinst)_ZSt22__uninitialized_copy_aIN9__gnu_cxx17__normal_iteratorIPN4bpkg9text_fileESt6vectorIS3_N4butl15small_allocatorIS3_Lm1ENS6_22small_allocator_bufferIS3_Lm1EEEEEEEES4_SA_ET0_T_SE_SD_RT1_@Base 0.14.0
 (optional=templinst)_ZSt22__uninitialized_copy_aIPKN4bpkg10dependencyEPS1_N4butl15small_allocatorIS1_Lm1ENS5_22small_allocator_bufferIS1_Lm1EEEEEET0_T_SB_SA_RT1_@Base 0.14.0
 (optional=templinst)_ZSt22__uninitialized_copy_aIPKN4bpkg14git_ref_filterEPS1_N4butl15small_allocatorIS1_Lm2ENS5_22small_allocator_bufferIS1_Lm2EEEEEET0_T_SB_SA_RT1_@Base 0.14.0
 (optional=templinst)_ZSt22__uninitialized_copy_aIPKN4bpkg15test_dependencyEPS1_N4butl15small_allocatorIS1_Lm1ENS5_22small_allocator_bufferIS1_Lm1EEEEEET0_T_SB_SA_RT1_@Base 0.14.0
 (optional=templinst)_ZSt22__uninitialized_copy_aIPKN4bpkg9text_fileEPS1_N4butl15small_allocatorIS1_Lm1ENS5_22small_allocator_bufferIS1_Lm1EEEEEET0_T_SB_SA_RT1_@Base 0.14.0
 (optional=templinst)_ZSt24__uninitialized_fill_n_aIPNSt7__cxx1112basic_stringIcSt11char_traitsIcESaIcEEEmS5_N4butl15small_allocatorIS5_Lm8ENS7_22small_allocator_bufferIS5_Lm8EEEEEET_SC_T0_RKT1_RT2_@Base 0.14.0
 (optional=templinst)_ZSt9__find_ifIN9__gnu_cxx17__normal_iteratorIPKNSt7__cxx1112basic_stringIcSt11char_traitsIcESaIcEEESt6vectorIS7_N4butl15small_allocatorIS7_Lm8ENSB_22small_allocator_bufferIS7_Lm8EEEEEEEENS0_5__ops10_Iter_predIZNSB_14basic_url_hostIS7_E9normalizeEvEUlRS8_E0_EEET_SP_SP_T0_St26random_access_iterator_tag@Base 0.14.0
 (optional=templinst)_ZSt9__find_ifIN9__gnu_cxx17__normal_iteratorIPKNSt7__cxx1112basic_stringIcSt11char_traitsIcESaIcEEESt6vectorIS7_N4butl15small_allocatorIS7_Lm8ENSB_22small_allocator_bufferIS7_Lm8EEEEEEEENS0_5__ops16_Iter_equals_valIS8_EEET_SL_SL_T0_St26random_access_iterator_tag@Base 0.14.0
 (optional=templinst)_ZSt9__find_ifIN9__gnu_cxx17__normal_iteratorIPKNSt7__cxx1112basic_stringIcSt11char_traitsIcESaIcEEESt6vectorIS7_SaIS7_EEEENS0_5__ops16_Iter_equals_valIS8_EEET_SH_SH_T0_St26random_access_iterator_tag@Base 0.14.0
 (optional=templinst)_ZSt9__find_ifIN9__gnu_cxx17__normal_iteratorIPKcNSt7__cxx1112basic_stringIcSt11char_traitsIcESaIcEEEEENS0_5__ops12_Iter_negateIPFbcEEEET_SG_SG_T0_St26random_access_iterator_tag@Base 0.14.0
 (optional=templinst)_ZStplIcSt11char_traitsIcESaIcEENSt7__cxx1112basic_stringIT_T0_T1_EEOS8_PKS5_@Base 0.14.0
 (optional=templinst)_ZStplIcSt11char_traitsIcESaIcEENSt7__cxx1112basic_stringIT_T0_T1_EEOS8_RKS8_@Base 0.14.0
 (optional=templinst)_ZStplIcSt11char_traitsIcESaIcEENSt7__cxx1112basic_stringIT_T0_T1_EEOS8_S5_@Base 0.14.0
 (optional=templinst)_ZStplIcSt11char_traitsIcESaIcEENSt7__cxx1112basic_stringIT_T0_T1_EEOS8_S9_@Base 0.14.0
 (optional=templinst)_ZStplIcSt11char_traitsIcESaIcEENSt7__cxx1112basic_stringIT_T0_T1_EEPKS5_OS8_@Base 0.14.0
 (optional=templinst)_ZStplIcSt11char_traitsIcESaIcEENSt7__cxx1112basic_stringIT_T0_T1_EEPKS5_RKS8_@Base 0.14.0
 (optional=templinst)_ZStplIcSt11char_traitsIcESaIcEENSt7__cxx1112basic_stringIT_T0_T1_EERKS8_PKS5_@Base 0.14.0
 _ZTIN4butl16manifest_parsingE@Base 0.14.0
 _ZTIN4butl17invalid_path_baseE@Base 0.14.0
 _ZTIN4butl18invalid_basic_pathIcEE@Base 0.14.0
 _ZTIN4butl22manifest_serializationE@Base 0.14.0
 _ZTSN4butl16manifest_parsingE@Base 0.14.0
 _ZTSN4butl17invalid_path_baseE@Base 0.14.0
 _ZTSN4butl18invalid_basic_pathIcEE@Base 0.14.0
 _ZTSN4butl22manifest_serializationE@Base 0.14.0
 _ZTVN4butl16manifest_parsingE@Base 0.14.0
 _ZTVN4butl17invalid_path_baseE@Base 0.14.0
 _ZTVN4butl18invalid_basic_pathIcEE@Base 0.14.0
 _ZTVN4butl22manifest_serializationE@Base 0.14.0
